; Function Attrs: mustprogress uwtable
define internal fastcc void @_ZSt16__insertion_sortIPP10tactic_cmdN9__gnu_cxx5__ops15_Iter_comp_iterIZ12help_tacticsvE3cmpEEEvT_S8_T0_(ptr noundef %__first, ptr noundef readnone %__last) unnamed_addr #4 personality ptr @__gxx_personality_v0 {
entry:
  %ref.tmp.i = alloca %"class.std::__cxx11::basic_string", align 8
  %ref.tmp2.i = alloca %class.symbol, align 8
  %ref.tmp3.i = alloca %"class.std::__cxx11::basic_string", align 8
  %ref.tmp4.i = alloca %class.symbol, align 8
  %cmp = icmp eq ptr %__first, %__last
  br i1 %cmp, label %for.end, label %for.cond.preheader

for.cond.preheader:                               ; preds = %entry
  %__i.015 = getelementptr inbounds i8, ptr %__first, i64 8
  %cmp1.not16 = icmp eq ptr %__i.015, %__last
  br i1 %cmp1.not16, label %for.end, label %for.body.lr.ph

for.body.lr.ph:                                   ; preds = %for.cond.preheader
  %sub.ptr.rhs.cast.i.i.i.i.i = ptrtoint ptr %__first to i64
  br label %for.body

for.body:                                         ; preds = %for.body.lr.ph, %for.inc
  %__i.018 = phi ptr [ %__i.015, %for.body.lr.ph ], [ %__i.0, %for.inc ]
  %__first.pn17 = phi ptr [ %__first, %for.body.lr.ph ], [ %__i.018, %for.inc ]
  %__i.0.val = load ptr, ptr %__i.018, align 8
  %__first.val = load ptr, ptr %__first, align 8
  %__i.0.val.val = load ptr, ptr %__i.0.val, align 8
  %call.i = call fastcc noundef zeroext i1 @_ZZ12help_tacticsvENK3cmpclEP10tactic_cmdS1_(ptr %__i.0.val.val, ptr noundef %__first.val)
  %0 = load ptr, ptr %__i.018, align 8
  br i1 %call.i, label %if.then2, label %if.else

if.then2:                                         ; preds = %for.body
  %add.ptr3 = getelementptr inbounds i8, ptr %__first.pn17, i64 16
  %sub.ptr.lhs.cast.i.i.i.i.i = ptrtoint ptr %__i.018 to i64
  %sub.ptr.sub.i.i.i.i.i = sub i64 %sub.ptr.lhs.cast.i.i.i.i.i, %sub.ptr.rhs.cast.i.i.i.i.i
  %sub.ptr.div.i.i.i.i.i = ashr exact i64 %sub.ptr.sub.i.i.i.i.i, 3
  %.pre.i.i.i.i.i = sub nsw i64 0, %sub.ptr.div.i.i.i.i.i
  %add.ptr.i.i.i.i.i = getelementptr inbounds ptr, ptr %add.ptr3, i64 %.pre.i.i.i.i.i
  call void @llvm.memmove.p0.p0.i64(ptr noundef nonnull align 8 dereferenceable(1) %add.ptr.i.i.i.i.i, ptr noundef nonnull align 8 dereferenceable(1) %__first, i64 %sub.ptr.sub.i.i.i.i.i, i1 false)
  br label %for.inc

if.else:                                          ; preds = %for.body
  %__next.0.val9.i = load ptr, ptr %__first.pn17, align 8
  %__val.val.val10.i = load ptr, ptr %0, align 8
  %call.i11.i = call fastcc noundef zeroext i1 @_ZZ12help_tacticsvENK3cmpclEP10tactic_cmdS1_(ptr %__val.val.val10.i, ptr noundef %__next.0.val9.i)
  br i1 %call.i11.i, label %while.body.i, label %for.inc

while.body.i:                                     ; preds = %if.else, %_ZZ12help_tacticsvENK3cmpclEP10tactic_cmdS1_.exit
  %__next.013.i = phi ptr [ %__next.0.i, %_ZZ12help_tacticsvENK3cmpclEP10tactic_cmdS1_.exit ], [ %__first.pn17, %if.else ]
  %__last.addr.012.i = phi ptr [ %__next.013.i, %_ZZ12help_tacticsvENK3cmpclEP10tactic_cmdS1_.exit ], [ %__i.018, %if.else ]
  %1 = load ptr, ptr %__next.013.i, align 8
  store ptr %1, ptr %__last.addr.012.i, align 8
  %__next.0.i = getelementptr inbounds i8, ptr %__next.013.i, i64 -8
  %__next.0.val.i = load ptr, ptr %__next.0.i, align 8
  %__val.val.val.i = load ptr, ptr %0, align 8
  call void @llvm.lifetime.start.p0(i64 32, ptr nonnull %ref.tmp.i)
  call void @llvm.lifetime.start.p0(i64 8, ptr nonnull %ref.tmp2.i)
  call void @llvm.lifetime.start.p0(i64 32, ptr nonnull %ref.tmp3.i)
  call void @llvm.lifetime.start.p0(i64 8, ptr nonnull %ref.tmp4.i)
  store ptr %__val.val.val.i, ptr %ref.tmp2.i, align 8
  call void @_ZNK6symbol3strB5cxx11Ev(ptr nonnull sret(%"class.std::__cxx11::basic_string") align 8 %ref.tmp.i, ptr noundef nonnull align 8 dereferenceable(8) %ref.tmp2.i)
  %retval.sroa.0.0.copyload.i1.i = load ptr, ptr %__next.0.val.i, align 8
  store ptr %retval.sroa.0.0.copyload.i1.i, ptr %ref.tmp4.i, align 8
  invoke void @_ZNK6symbol3strB5cxx11Ev(ptr nonnull sret(%"class.std::__cxx11::basic_string") align 8 %ref.tmp3.i, ptr noundef nonnull align 8 dereferenceable(8) %ref.tmp4.i)
          to label %invoke.cont.i unwind label %lpad.i

invoke.cont.i:                                    ; preds = %while.body.i
  %call.i.i12 = invoke noundef i32 @_ZNKSt7__cxx1112basic_stringIcSt11char_traitsIcESaIcEE7compareERKS4_(ptr noundef nonnull align 8 dereferenceable(32) %ref.tmp.i, ptr noundef nonnull align 8 dereferenceable(32) %ref.tmp3.i)
          to label %_ZZ12help_tacticsvENK3cmpclEP10tactic_cmdS1_.exit unwind label %terminate.lpad.i.i

terminate.lpad.i.i:                               ; preds = %invoke.cont.i
  %2 = landingpad { ptr, i32 }
          catch ptr null
  %3 = extractvalue { ptr, i32 } %2, 0
  call void @__clang_call_terminate(ptr %3) #20
  unreachable

lpad.i:                                           ; preds = %while.body.i
  %4 = landingpad { ptr, i32 }
          cleanup
  call void @_ZNSt7__cxx1112basic_stringIcSt11char_traitsIcESaIcEED1Ev(ptr noundef nonnull align 8 dereferenceable(32) %ref.tmp.i) #19
  resume { ptr, i32 } %4

_ZZ12help_tacticsvENK3cmpclEP10tactic_cmdS1_.exit: ; preds = %invoke.cont.i
  %cmp.i.i = icmp slt i32 %call.i.i12, 0
  call void @_ZNSt7__cxx1112basic_stringIcSt11char_traitsIcESaIcEED1Ev(ptr noundef nonnull align 8 dereferenceable(32) %ref.tmp3.i) #19
  call void @_ZNSt7__cxx1112basic_stringIcSt11char_traitsIcESaIcEED1Ev(ptr noundef nonnull align 8 dereferenceable(32) %ref.tmp.i) #19
  call void @llvm.lifetime.end.p0(i64 32, ptr nonnull %ref.tmp.i)
  call void @llvm.lifetime.end.p0(i64 8, ptr nonnull %ref.tmp2.i)
  call void @llvm.lifetime.end.p0(i64 32, ptr nonnull %ref.tmp3.i)
  call void @llvm.lifetime.end.p0(i64 8, ptr nonnull %ref.tmp4.i)
  br i1 %cmp.i.i, label %while.body.i, label %for.inc, !llvm.loop !6

for.inc:                                          ; preds = %_ZZ12help_tacticsvENK3cmpclEP10tactic_cmdS1_.exit, %if.else, %if.then2
  %__first.sink = phi ptr [ %__first, %if.then2 ], [ %__i.018, %if.else ], [ %__next.013.i, %_ZZ12help_tacticsvENK3cmpclEP10tactic_cmdS1_.exit ]
  store ptr %0, ptr %__first.sink, align 8
  %__i.0 = getelementptr inbounds i8, ptr %__i.018, i64 8
  %cmp1.not = icmp eq ptr %__i.0, %__last
  br i1 %cmp1.not, label %for.end, label %for.body, !llvm.loop !25

for.end:                                          ; preds = %for.inc, %for.cond.preheader, %entry
  ret void
}